; ModuleID = 'source-C-CXX/40/88.cpp'
source_filename = "source-C-CXX/40/88.cpp"
target datalayout = "e-m:e-p270:32:32-p271:32:32-p272:64:64-i64:64-f80:128-n8:16:32:64-S128"
target triple = "x86_64-pc-linux-gnu"

%"class.std::ios_base::Init" = type { i8 }
%"class.std::basic_ostream" = type { i32 (...)**, %"class.std::basic_ios" }
%"class.std::basic_ios" = type { %"class.std::ios_base", %"class.std::basic_ostream"*, i8, i8, %"class.std::basic_streambuf"*, %"class.std::ctype"*, %"class.std::num_put"*, %"class.std::num_get"* }
%"class.std::ios_base" = type { i32 (...)**, i64, i64, i32, i32, i32, %"struct.std::ios_base::_Callback_list"*, %"struct.std::ios_base::_Words", [8 x %"struct.std::ios_base::_Words"], i32, %"struct.std::ios_base::_Words"*, %"class.std::locale" }
%"struct.std::ios_base::_Callback_list" = type { %"struct.std::ios_base::_Callback_list"*, void (i32, %"class.std::ios_base"*, i32)*, i32, i32 }
%"struct.std::ios_base::_Words" = type { i8*, i64 }
%"class.std::locale" = type { %"class.std::locale::_Impl"* }
%"class.std::locale::_Impl" = type { i32, %"class.std::locale::facet"**, i64, %"class.std::locale::facet"**, i8** }
%"class.std::locale::facet" = type <{ i32 (...)**, i32, [4 x i8] }>
%"class.std::basic_streambuf" = type { i32 (...)**, i8*, i8*, i8*, i8*, i8*, i8*, %"class.std::locale" }
%"class.std::ctype" = type <{ %"class.std::locale::facet.base", [4 x i8], %struct.__locale_struct*, i8, [7 x i8], i32*, i32*, i16*, i8, [256 x i8], [256 x i8], i8, [6 x i8] }>
%"class.std::locale::facet.base" = type <{ i32 (...)**, i32 }>
%struct.__locale_struct = type { [13 x %struct.__locale_data*], i16*, i32*, i32*, [13 x i8*] }
%struct.__locale_data = type opaque
%"class.std::num_put" = type { %"class.std::locale::facet.base", [4 x i8] }
%"class.std::num_get" = type { %"class.std::locale::facet.base", [4 x i8] }

@_ZStL8__ioinit = internal global %"class.std::ios_base::Init" zeroinitializer, align 1
@__dso_handle = external hidden global i8
@_ZSt4cout = external global %"class.std::basic_ostream", align 8
@llvm.global_ctors = appending global [1 x { i32, void ()*, i8* }] [{ i32, void ()*, i8* } { i32 65535, void ()* @_GLOBAL__sub_I_88.cpp, i8* null }]

declare void @_ZNSt8ios_base4InitC1Ev(%"class.std::ios_base::Init"* nonnull align 1 dereferenceable(1)) unnamed_addr #0

; Function Attrs: nounwind
declare void @_ZNSt8ios_base4InitD1Ev(%"class.std::ios_base::Init"* nonnull align 1 dereferenceable(1)) unnamed_addr #1

; Function Attrs: nofree nounwind
declare i32 @__cxa_atexit(void (i8*)*, i8*, i8*) local_unnamed_addr #2

; Function Attrs: mustprogress norecurse sspstrong uwtable
define dso_local i32 @main() local_unnamed_addr #3 {
  %1 = alloca i8, align 1
  br label %2

2:                                                ; preds = %0, %62
  %3 = phi i32 [ 1, %0 ], [ %63, %62 ]
  %4 = icmp eq i32 %3, 5
  %5 = zext i1 %4 to i32
  %6 = add nsw i32 %3, -1
  %7 = icmp ugt i32 %6, 1
  br label %8

8:                                                ; preds = %2, %59
  %9 = phi i32 [ 1, %2 ], [ %60, %59 ]
  %10 = add nuw nsw i32 %9, %3
  %11 = mul nuw nsw i32 %9, %3
  %12 = icmp eq i32 %9, 2
  %13 = zext i1 %12 to i32
  %14 = add nuw nsw i32 %13, %5
  %15 = add nsw i32 %9, -1
  %16 = icmp ugt i32 %15, 1
  %17 = or i1 %16, %12
  br label %18

18:                                               ; preds = %8, %56
  %19 = phi i32 [ 1, %8 ], [ %57, %56 ]
  %20 = add nuw nsw i32 %10, %19
  %21 = mul nuw nsw i32 %11, %19
  %22 = icmp ne i32 %19, 1
  %23 = zext i1 %22 to i32
  %24 = add nuw nsw i32 %14, %23
  %25 = add nsw i32 %19, -1
  %26 = icmp ugt i32 %25, 1
  %27 = select i1 %26, i1 true, i1 %4
  br label %28

28:                                               ; preds = %18, %53
  %29 = phi i32 [ 1, %18 ], [ %54, %53 ]
  %30 = add nuw nsw i32 %20, %29
  %31 = sub nsw i32 15, %30
  %32 = mul nuw nsw i32 %21, %29
  %33 = mul nsw i32 %32, %31
  %34 = freeze i32 %33
  %35 = icmp ne i32 %34, 120
  %36 = and i32 %30, 2147483646
  %37 = icmp eq i32 %36, 12
  %38 = select i1 %35, i1 true, i1 %37
  br i1 %38, label %53, label %39

39:                                               ; preds = %28
  %40 = icmp eq i32 %31, 1
  %41 = icmp eq i32 %29, 1
  %42 = zext i1 %40 to i32
  %43 = zext i1 %41 to i32
  %44 = add nuw nsw i32 %24, %43
  %45 = add nuw nsw i32 %44, %42
  %46 = icmp eq i32 %45, 2
  br i1 %46, label %47, label %53

47:                                               ; preds = %39
  %48 = select i1 %7, i1 true, i1 %40
  %49 = select i1 %48, i1 %17, i1 false
  %50 = xor i1 %49, true
  %51 = xor i1 %27, true
  %52 = select i1 %50, i1 true, i1 %51
  br i1 %52, label %53, label %66

53:                                               ; preds = %47, %70, %66, %28, %39, %74
  %54 = add nuw nsw i32 %29, 1
  %55 = icmp eq i32 %54, 6
  br i1 %55, label %56, label %28, !llvm.loop !5

56:                                               ; preds = %53
  %57 = add nuw nsw i32 %19, 1
  %58 = icmp eq i32 %57, 6
  br i1 %58, label %59, label %18, !llvm.loop !7

59:                                               ; preds = %56
  %60 = add nuw nsw i32 %9, 1
  %61 = icmp eq i32 %60, 6
  br i1 %61, label %62, label %8, !llvm.loop !8

62:                                               ; preds = %59
  %63 = add nuw nsw i32 %3, 1
  %64 = icmp eq i32 %63, 6
  br i1 %64, label %65, label %2, !llvm.loop !9

65:                                               ; preds = %62
  ret i32 0

66:                                               ; preds = %47
  %67 = add nsw i32 %29, -1
  %68 = icmp ugt i32 %67, 1
  %69 = select i1 %68, i1 true, i1 %22
  br i1 %69, label %70, label %53

70:                                               ; preds = %66
  %71 = sub nsw i32 14, %30
  %72 = icmp ugt i32 %71, 1
  %73 = select i1 %72, i1 true, i1 %41
  br i1 %73, label %74, label %53

74:                                               ; preds = %70
  %75 = call nonnull align 8 dereferenceable(8) %"class.std::basic_ostream"* @_ZNSolsEi(%"class.std::basic_ostream"* nonnull align 8 dereferenceable(8) @_ZSt4cout, i32 %3)
  call void @llvm.lifetime.start.p0i8(i64 1, i8* nonnull %1)
  store i8 32, i8* %1, align 1, !tbaa !10
  %76 = call nonnull align 8 dereferenceable(8) %"class.std::basic_ostream"* @_ZSt16__ostream_insertIcSt11char_traitsIcEERSt13basic_ostreamIT_T0_ES6_PKS3_l(%"class.std::basic_ostream"* nonnull align 8 dereferenceable(8) %75, i8* nonnull %1, i64 1)
  call void @llvm.lifetime.end.p0i8(i64 1, i8* nonnull %1)
  %77 = call nonnull align 8 dereferenceable(8) %"class.std::basic_ostream"* @_ZNSolsEi(%"class.std::basic_ostream"* nonnull align 8 dereferenceable(8) @_ZSt4cout, i32 %9)
  call void @llvm.lifetime.start.p0i8(i64 1, i8* nonnull %1)
  store i8 32, i8* %1, align 1, !tbaa !10
  %78 = call nonnull align 8 dereferenceable(8) %"class.std::basic_ostream"* @_ZSt16__ostream_insertIcSt11char_traitsIcEERSt13basic_ostreamIT_T0_ES6_PKS3_l(%"class.std::basic_ostream"* nonnull align 8 dereferenceable(8) %77, i8* nonnull %1, i64 1)
  call void @llvm.lifetime.end.p0i8(i64 1, i8* nonnull %1)
  %79 = call nonnull align 8 dereferenceable(8) %"class.std::basic_ostream"* @_ZNSolsEi(%"class.std::basic_ostream"* nonnull align 8 dereferenceable(8) @_ZSt4cout, i32 %19)
  call void @llvm.lifetime.start.p0i8(i64 1, i8* nonnull %1)
  store i8 32, i8* %1, align 1, !tbaa !10
  %80 = call nonnull align 8 dereferenceable(8) %"class.std::basic_ostream"* @_ZSt16__ostream_insertIcSt11char_traitsIcEERSt13basic_ostreamIT_T0_ES6_PKS3_l(%"class.std::basic_ostream"* nonnull align 8 dereferenceable(8) %79, i8* nonnull %1, i64 1)
  call void @llvm.lifetime.end.p0i8(i64 1, i8* nonnull %1)
  %81 = call nonnull align 8 dereferenceable(8) %"class.std::basic_ostream"* @_ZNSolsEi(%"class.std::basic_ostream"* nonnull align 8 dereferenceable(8) @_ZSt4cout, i32 %29)
  call void @llvm.lifetime.start.p0i8(i64 1, i8* nonnull %1)
  store i8 32, i8* %1, align 1, !tbaa !10
  %82 = call nonnull align 8 dereferenceable(8) %"class.std::basic_ostream"* @_ZSt16__ostream_insertIcSt11char_traitsIcEERSt13basic_ostreamIT_T0_ES6_PKS3_l(%"class.std::basic_ostream"* nonnull align 8 dereferenceable(8) %81, i8* nonnull %1, i64 1)
  call void @llvm.lifetime.end.p0i8(i64 1, i8* nonnull %1)
  %83 = call nonnull align 8 dereferenceable(8) %"class.std::basic_ostream"* @_ZNSolsEi(%"class.std::basic_ostream"* nonnull align 8 dereferenceable(8) @_ZSt4cout, i32 %31)
  br label %53
}

; Function Attrs: argmemonly mustprogress nofree nosync nounwind willreturn
declare void @llvm.lifetime.start.p0i8(i64 immarg, i8* nocapture) #4

declare nonnull align 8 dereferenceable(8) %"class.std::basic_ostream"* @_ZNSolsEi(%"class.std::basic_ostream"* nonnull align 8 dereferenceable(8), i32) local_unnamed_addr #0

; Function Attrs: argmemonly mustprogress nofree nosync nounwind willreturn
declare void @llvm.lifetime.end.p0i8(i64 immarg, i8* nocapture) #4

declare nonnull align 8 dereferenceable(8) %"class.std::basic_ostream"* @_ZSt16__ostream_insertIcSt11char_traitsIcEERSt13basic_ostreamIT_T0_ES6_PKS3_l(%"class.std::basic_ostream"* nonnull align 8 dereferenceable(8), i8*, i64) local_unnamed_addr #0

; Function Attrs: sspstrong uwtable
define internal void @_GLOBAL__sub_I_88.cpp() #5 section ".text.startup" {
  tail call void @_ZNSt8ios_base4InitC1Ev(%"class.std::ios_base::Init"* nonnull align 1 dereferenceable(1) @_ZStL8__ioinit)
  %1 = tail call i32 @__cxa_atexit(void (i8*)* bitcast (void (%"class.std::ios_base::Init"*)* @_ZNSt8ios_base4InitD1Ev to void (i8*)*), i8* getelementptr inbounds (%"class.std::ios_base::Init", %"class.std::ios_base::Init"* @_ZStL8__ioinit, i64 0, i32 0), i8* nonnull @__dso_handle) #6
  ret void
}


!llvm.module.flags = !{!0, !1, !2, !3}
!llvm.ident = !{!4}

!0 = !{i32 1, !"wchar_size", i32 4}
!1 = !{i32 7, !"PIC Level", i32 2}
!2 = !{i32 7, !"PIE Level", i32 2}
!3 = !{i32 7, !"uwtable", i32 1}
!4 = !{!"clang version 13.0.0"}
!5 = distinct !{!5, !6}
!6 = !{!"llvm.loop.mustprogress"}
!7 = distinct !{!7, !6}
!8 = distinct !{!8, !6}
!9 = distinct !{!9, !6}
!10 = !{!11, !11, i64 0}
!11 = !{!"omnipotent char", !12, i64 0}
!12 = !{!"Simple C++ TBAA"}
